; Function Attrs: mustprogress uwtable
define internal void @_ZN12_GLOBAL__N_113tactic2solver4cubeER10ref_vectorI4expr11ast_managerEj(ptr dead_on_unwind noalias writable writeonly sret(%class.ref_vector) align 8 captures(none) initializes((0, 16)) %0, ptr noundef nonnull align 8 dereferenceable(225) %1, ptr nonnull readnone align 8 captures(none) %2, i32 %3) unnamed_addr #3 align 2 {
  %5 = load ptr, ptr %1, align 8, !tbaa !3
  %6 = getelementptr inbounds nuw i8, ptr %5, i64 56
  %7 = load ptr, ptr %6, align 8
  tail call void %7(ptr noundef nonnull align 8 dereferenceable(225) %1, ptr noundef nonnull @.str.7)
  %8 = tail call noundef i32 @_Z19get_verbosity_levelv()
  %.not = icmp eq i32 %8, 0
  br i1 %.not, label %17, label %9

9:                                                ; preds = %4
  %10 = tail call noundef zeroext i1 @_Z11is_threadedv()
  br i1 %10, label %11, label %14

11:                                               ; preds = %9
  tail call void @_Z12verbose_lockv()
  %12 = tail call noundef nonnull align 8 dereferenceable(8) ptr @_Z14verbose_streamv()
  %13 = tail call noundef nonnull align 8 dereferenceable(8) ptr @_ZSt16__ostream_insertIcSt11char_traitsIcEERSt13basic_ostreamIT_T0_ES6_PKS3_l(ptr noundef nonnull align 8 dereferenceable(8) %12, ptr noundef nonnull @.str.8, i64 noundef 35)
  tail call void @_Z14verbose_unlockv()
  br label %17

14:                                               ; preds = %9
  %15 = tail call noundef nonnull align 8 dereferenceable(8) ptr @_Z14verbose_streamv()
  %16 = tail call noundef nonnull align 8 dereferenceable(8) ptr @_ZSt16__ostream_insertIcSt11char_traitsIcEERSt13basic_ostreamIT_T0_ES6_PKS3_l(ptr noundef nonnull align 8 dereferenceable(8) %15, ptr noundef nonnull @.str.8, i64 noundef 35)
  br label %17

17:                                               ; preds = %11, %14, %4
  %18 = load ptr, ptr %1, align 8, !tbaa !3
  %19 = getelementptr inbounds nuw i8, ptr %18, i64 72
  %20 = load ptr, ptr %19, align 8
  %21 = tail call noundef nonnull align 8 dereferenceable(976) ptr %20(ptr noundef nonnull align 8 dereferenceable(225) %1)
  %22 = ptrtoint ptr %21 to i64
  store i64 %22, ptr %0, align 8, !tbaa !6
  %23 = getelementptr inbounds nuw i8, ptr %0, i64 8
  store ptr null, ptr %23, align 8, !tbaa !10
  ret void
}